; ModuleID = '13/1747.cpp'
source_filename = "13/1747.cpp"
target datalayout = "e-m:e-p270:32:32-p271:32:32-p272:64:64-i64:64-f80:128-n8:16:32:64-S128"
target triple = "x86_64-pc-linux-gnu"

%"class.std::ios_base::Init" = type { i8 }
%"class.std::basic_istream" = type { i32 (...)**, i64, %"class.std::basic_ios" }
%"class.std::basic_ios" = type { %"class.std::ios_base", %"class.std::basic_ostream"*, i8, i8, %"class.std::basic_streambuf"*, %"class.std::ctype"*, %"class.std::num_put"*, %"class.std::num_get"* }
%"class.std::ios_base" = type { i32 (...)**, i64, i64, i32, i32, i32, %"struct.std::ios_base::_Callback_list"*, %"struct.std::ios_base::_Words", [8 x %"struct.std::ios_base::_Words"], i32, %"struct.std::ios_base::_Words"*, %"class.std::locale" }
%"struct.std::ios_base::_Callback_list" = type { %"struct.std::ios_base::_Callback_list"*, void (i32, %"class.std::ios_base"*, i32)*, i32, i32 }
%"struct.std::ios_base::_Words" = type { i8*, i64 }
%"class.std::locale" = type { %"class.std::locale::_Impl"* }
%"class.std::locale::_Impl" = type { i32, %"class.std::locale::facet"**, i64, %"class.std::locale::facet"**, i8** }
%"class.std::locale::facet" = type <{ i32 (...)**, i32, [4 x i8] }>
%"class.std::basic_ostream" = type { i32 (...)**, %"class.std::basic_ios" }
%"class.std::basic_streambuf" = type { i32 (...)**, i8*, i8*, i8*, i8*, i8*, i8*, %"class.std::locale" }
%"class.std::ctype" = type <{ %"class.std::locale::facet.base", [4 x i8], %struct.__locale_struct*, i8, [7 x i8], i32*, i32*, i16*, i8, [256 x i8], [256 x i8], i8, [6 x i8] }>
%"class.std::locale::facet.base" = type <{ i32 (...)**, i32 }>
%struct.__locale_struct = type { [13 x %struct.__locale_data*], i16*, i32*, i32*, [13 x i8*] }
%struct.__locale_data = type opaque
%"class.std::num_put" = type { %"class.std::locale::facet.base", [4 x i8] }
%"class.std::num_get" = type { %"class.std::locale::facet.base", [4 x i8] }

@_ZStL8__ioinit = internal global %"class.std::ios_base::Init" zeroinitializer, align 1
@__dso_handle = external hidden global i8
@_ZSt3cin = external dso_local global %"class.std::basic_istream", align 8
@_ZSt4cout = external dso_local global %"class.std::basic_ostream", align 8
@.str = private unnamed_addr constant [2 x i8] c" \00", align 1
@llvm.global_ctors = appending global [1 x { i32, void ()*, i8* }] [{ i32, void ()*, i8* } { i32 65535, void ()* @_GLOBAL__sub_I_1747.cpp, i8* null }]

; Function Attrs: noinline uwtable
define internal void @__cxx_global_var_init() #0 section ".text.startup" {
  call void @_ZNSt8ios_base4InitC1Ev(%"class.std::ios_base::Init"* @_ZStL8__ioinit)
  %1 = call i32 @__cxa_atexit(void (i8*)* bitcast (void (%"class.std::ios_base::Init"*)* @_ZNSt8ios_base4InitD1Ev to void (i8*)*), i8* getelementptr inbounds (%"class.std::ios_base::Init", %"class.std::ios_base::Init"* @_ZStL8__ioinit, i32 0, i32 0), i8* @__dso_handle) #3
  ret void
}

declare dso_local void @_ZNSt8ios_base4InitC1Ev(%"class.std::ios_base::Init"*) unnamed_addr #1

; Function Attrs: nounwind
declare dso_local void @_ZNSt8ios_base4InitD1Ev(%"class.std::ios_base::Init"*) unnamed_addr #2

; Function Attrs: nounwind
declare dso_local i32 @__cxa_atexit(void (i8*)*, i8*, i8*) #3

; Function Attrs: noinline norecurse uwtable
define dso_local i32 @main() #4 {
  %1 = alloca i32, align 4
  %2 = alloca i32, align 4
  %3 = alloca [20000 x i32], align 16
  %4 = alloca i32, align 4
  %5 = alloca i32, align 4
  %6 = alloca i32, align 4
  %7 = alloca i32, align 4
  store i32 0, i32* %1, align 4
  store i32 0, i32* %4, align 4
  %8 = call dereferenceable(280) %"class.std::basic_istream"* @_ZNSirsERi(%"class.std::basic_istream"* @_ZSt3cin, i32* dereferenceable(4) %2)
  store i32 0, i32* %5, align 4
  br label %9

9:                                                ; preds = %18, %0
  %10 = load i32, i32* %5, align 4
  %11 = load i32, i32* %2, align 4
  %12 = icmp slt i32 %10, %11
  br i1 %12, label %13, label %21

13:                                               ; preds = %9
  %14 = load i32, i32* %5, align 4
  %15 = sext i32 %14 to i64
  %16 = getelementptr inbounds [20000 x i32], [20000 x i32]* %3, i64 0, i64 %15
  %17 = call dereferenceable(280) %"class.std::basic_istream"* @_ZNSirsERi(%"class.std::basic_istream"* @_ZSt3cin, i32* dereferenceable(4) %16)
  br label %18

18:                                               ; preds = %13
  %19 = load i32, i32* %5, align 4
  %20 = add nsw i32 %19, 1
  store i32 %20, i32* %5, align 4
  br label %9

21:                                               ; preds = %9
  %22 = getelementptr inbounds [20000 x i32], [20000 x i32]* %3, i64 0, i64 0
  %23 = load i32, i32* %22, align 16
  %24 = call dereferenceable(272) %"class.std::basic_ostream"* @_ZNSolsEi(%"class.std::basic_ostream"* @_ZSt4cout, i32 %23)
  store i32 1, i32* %6, align 4
  br label %25

25:                                               ; preds = %65, %21
  %26 = load i32, i32* %6, align 4
  %27 = load i32, i32* %2, align 4
  %28 = icmp slt i32 %26, %27
  br i1 %28, label %29, label %68

29:                                               ; preds = %25
  store i32 0, i32* %4, align 4
  %30 = load i32, i32* %6, align 4
  %31 = sub nsw i32 %30, 1
  store i32 %31, i32* %7, align 4
  br label %32

32:                                               ; preds = %51, %29
  %33 = load i32, i32* %7, align 4
  %34 = icmp sge i32 %33, 0
  br i1 %34, label %35, label %54

35:                                               ; preds = %32
  %36 = load i32, i32* %6, align 4
  %37 = sext i32 %36 to i64
  %38 = getelementptr inbounds [20000 x i32], [20000 x i32]* %3, i64 0, i64 %37
  %39 = load i32, i32* %38, align 4
  %40 = load i32, i32* %7, align 4
  %41 = sext i32 %40 to i64
  %42 = getelementptr inbounds [20000 x i32], [20000 x i32]* %3, i64 0, i64 %41
  %43 = load i32, i32* %42, align 4
  %44 = icmp ne i32 %39, %43
  br i1 %44, label %45, label %47

45:                                               ; preds = %35
  %46 = load i32, i32* %4, align 4
  store i32 %46, i32* %4, align 4
  br label %50

47:                                               ; preds = %35
  %48 = load i32, i32* %4, align 4
  %49 = add nsw i32 %48, 1
  store i32 %49, i32* %4, align 4
  br label %50

50:                                               ; preds = %47, %45
  br label %51

51:                                               ; preds = %50
  %52 = load i32, i32* %7, align 4
  %53 = add nsw i32 %52, -1
  store i32 %53, i32* %7, align 4
  br label %32

54:                                               ; preds = %32
  %55 = load i32, i32* %4, align 4
  %56 = icmp eq i32 %55, 0
  br i1 %56, label %57, label %64

57:                                               ; preds = %54
  %58 = call dereferenceable(272) %"class.std::basic_ostream"* @_ZStlsISt11char_traitsIcEERSt13basic_ostreamIcT_ES5_PKc(%"class.std::basic_ostream"* dereferenceable(272) @_ZSt4cout, i8* getelementptr inbounds ([2 x i8], [2 x i8]* @.str, i64 0, i64 0))
  %59 = load i32, i32* %6, align 4
  %60 = sext i32 %59 to i64
  %61 = getelementptr inbounds [20000 x i32], [20000 x i32]* %3, i64 0, i64 %60
  %62 = load i32, i32* %61, align 4
  %63 = call dereferenceable(272) %"class.std::basic_ostream"* @_ZNSolsEi(%"class.std::basic_ostream"* %58, i32 %62)
  br label %64

64:                                               ; preds = %57, %54
  br label %65

65:                                               ; preds = %64
  %66 = load i32, i32* %6, align 4
  %67 = add nsw i32 %66, 1
  store i32 %67, i32* %6, align 4
  br label %25

68:                                               ; preds = %25
  %69 = call dereferenceable(272) %"class.std::basic_ostream"* @_ZNSolsEPFRSoS_E(%"class.std::basic_ostream"* @_ZSt4cout, %"class.std::basic_ostream"* (%"class.std::basic_ostream"*)* @_ZSt4endlIcSt11char_traitsIcEERSt13basic_ostreamIT_T0_ES6_)
  ret i32 0
}

declare dso_local dereferenceable(280) %"class.std::basic_istream"* @_ZNSirsERi(%"class.std::basic_istream"*, i32* dereferenceable(4)) #1

declare dso_local dereferenceable(272) %"class.std::basic_ostream"* @_ZNSolsEi(%"class.std::basic_ostream"*, i32) #1

declare dso_local dereferenceable(272) %"class.std::basic_ostream"* @_ZStlsISt11char_traitsIcEERSt13basic_ostreamIcT_ES5_PKc(%"class.std::basic_ostream"* dereferenceable(272), i8*) #1

declare dso_local dereferenceable(272) %"class.std::basic_ostream"* @_ZNSolsEPFRSoS_E(%"class.std::basic_ostream"*, %"class.std::basic_ostream"* (%"class.std::basic_ostream"*)*) #1

declare dso_local dereferenceable(272) %"class.std::basic_ostream"* @_ZSt4endlIcSt11char_traitsIcEERSt13basic_ostreamIT_T0_ES6_(%"class.std::basic_ostream"* dereferenceable(272)) #1

; Function Attrs: noinline uwtable
define internal void @_GLOBAL__sub_I_1747.cpp() #0 section ".text.startup" {
  call void @__cxx_global_var_init()
  ret void
}


!llvm.module.flags = !{!0}
!llvm.ident = !{!1}

!0 = !{i32 1, !"wchar_size", i32 4}
!1 = !{!"clang version 10.0.0-4ubuntu1 "}
